; ModuleID = '9/1182.c'
source_filename = "9/1182.c"
target datalayout = "e-m:e-p270:32:32-p271:32:32-p272:64:64-i64:64-f80:128-n8:16:32:64-S128"
target triple = "x86_64-pc-linux-gnu"

@.str = private unnamed_addr constant [3 x i8] c"%d\00", align 1
@.str.1 = private unnamed_addr constant [3 x i8] c"%s\00", align 1
@.str.2 = private unnamed_addr constant [4 x i8] c"%s\0A\00", align 1

; Function Attrs: noinline nounwind uwtable
define dso_local i32 @main() #0 {
  %1 = alloca i32, align 4
  %2 = alloca [100 x [101 x i8]], align 16
  %3 = alloca [100 x [101 x i8]], align 16
  %4 = alloca [100 x i32], align 16
  %5 = alloca [100 x i32], align 16
  %6 = alloca i32, align 4
  %7 = alloca i32, align 4
  %8 = alloca i32, align 4
  %9 = alloca [100 x i8], align 16
  %10 = alloca i32, align 4
  %11 = alloca i32, align 4
  store i32 0, i32* %1, align 4
  %12 = call i32 (i8*, ...) @__isoc99_scanf(i8* getelementptr inbounds ([3 x i8], [3 x i8]* @.str, i64 0, i64 0), i32* %10)
  store i32 0, i32* %7, align 4
  br label %13

13:                                               ; preds = %27, %0
  %14 = load i32, i32* %7, align 4
  %15 = load i32, i32* %10, align 4
  %16 = icmp slt i32 %14, %15
  br i1 %16, label %17, label %30

17:                                               ; preds = %13
  %18 = load i32, i32* %7, align 4
  %19 = sext i32 %18 to i64
  %20 = getelementptr inbounds [100 x [101 x i8]], [100 x [101 x i8]]* %2, i64 0, i64 %19
  %21 = getelementptr inbounds [101 x i8], [101 x i8]* %20, i64 0, i64 0
  %22 = call i32 (i8*, ...) @__isoc99_scanf(i8* getelementptr inbounds ([3 x i8], [3 x i8]* @.str.1, i64 0, i64 0), i8* %21)
  %23 = load i32, i32* %7, align 4
  %24 = sext i32 %23 to i64
  %25 = getelementptr inbounds [100 x i32], [100 x i32]* %5, i64 0, i64 %24
  %26 = call i32 (i8*, ...) @__isoc99_scanf(i8* getelementptr inbounds ([3 x i8], [3 x i8]* @.str, i64 0, i64 0), i32* %25)
  br label %27

27:                                               ; preds = %17
  %28 = load i32, i32* %7, align 4
  %29 = add nsw i32 %28, 1
  store i32 %29, i32* %7, align 4
  br label %13

30:                                               ; preds = %13
  store i32 0, i32* %6, align 4
  store i32 0, i32* %8, align 4
  store i32 0, i32* %7, align 4
  br label %31

31:                                               ; preds = %66, %30
  %32 = load i32, i32* %7, align 4
  %33 = load i32, i32* %10, align 4
  %34 = icmp slt i32 %32, %33
  br i1 %34, label %35, label %69

35:                                               ; preds = %31
  %36 = load i32, i32* %7, align 4
  %37 = sext i32 %36 to i64
  %38 = getelementptr inbounds [100 x i32], [100 x i32]* %5, i64 0, i64 %37
  %39 = load i32, i32* %38, align 4
  %40 = icmp sge i32 %39, 60
  br i1 %40, label %41, label %65

41:                                               ; preds = %35
  %42 = load i32, i32* %6, align 4
  %43 = add nsw i32 %42, 1
  store i32 %43, i32* %6, align 4
  %44 = load i32, i32* %7, align 4
  %45 = sext i32 %44 to i64
  %46 = getelementptr inbounds [100 x i32], [100 x i32]* %5, i64 0, i64 %45
  %47 = load i32, i32* %46, align 4
  %48 = load i32, i32* %8, align 4
  %49 = sext i32 %48 to i64
  %50 = getelementptr inbounds [100 x i32], [100 x i32]* %4, i64 0, i64 %49
  store i32 %47, i32* %50, align 4
  %51 = load i32, i32* %8, align 4
  %52 = sext i32 %51 to i64
  %53 = getelementptr inbounds [100 x [101 x i8]], [100 x [101 x i8]]* %3, i64 0, i64 %52
  %54 = getelementptr inbounds [101 x i8], [101 x i8]* %53, i64 0, i64 0
  %55 = load i32, i32* %7, align 4
  %56 = sext i32 %55 to i64
  %57 = getelementptr inbounds [100 x [101 x i8]], [100 x [101 x i8]]* %2, i64 0, i64 %56
  %58 = getelementptr inbounds [101 x i8], [101 x i8]* %57, i64 0, i64 0
  %59 = call i8* @strcpy(i8* %54, i8* %58) #3
  %60 = load i32, i32* %8, align 4
  %61 = add nsw i32 %60, 1
  store i32 %61, i32* %8, align 4
  %62 = load i32, i32* %7, align 4
  %63 = sext i32 %62 to i64
  %64 = getelementptr inbounds [100 x i32], [100 x i32]* %5, i64 0, i64 %63
  store i32 0, i32* %64, align 4
  br label %65

65:                                               ; preds = %41, %35
  br label %66

66:                                               ; preds = %65
  %67 = load i32, i32* %7, align 4
  %68 = add nsw i32 %67, 1
  store i32 %68, i32* %7, align 4
  br label %31

69:                                               ; preds = %31
  store i32 1, i32* %7, align 4
  br label %70

70:                                               ; preds = %138, %69
  %71 = load i32, i32* %7, align 4
  %72 = load i32, i32* %6, align 4
  %73 = icmp sle i32 %71, %72
  br i1 %73, label %74, label %141

74:                                               ; preds = %70
  store i32 0, i32* %8, align 4
  br label %75

75:                                               ; preds = %134, %74
  %76 = load i32, i32* %8, align 4
  %77 = load i32, i32* %6, align 4
  %78 = load i32, i32* %7, align 4
  %79 = sub nsw i32 %77, %78
  %80 = icmp slt i32 %76, %79
  br i1 %80, label %81, label %137

81:                                               ; preds = %75
  %82 = load i32, i32* %8, align 4
  %83 = sext i32 %82 to i64
  %84 = getelementptr inbounds [100 x i32], [100 x i32]* %4, i64 0, i64 %83
  %85 = load i32, i32* %84, align 4
  %86 = load i32, i32* %8, align 4
  %87 = add nsw i32 %86, 1
  %88 = sext i32 %87 to i64
  %89 = getelementptr inbounds [100 x i32], [100 x i32]* %4, i64 0, i64 %88
  %90 = load i32, i32* %89, align 4
  %91 = icmp slt i32 %85, %90
  br i1 %91, label %92, label %133

92:                                               ; preds = %81
  %93 = load i32, i32* %8, align 4
  %94 = sext i32 %93 to i64
  %95 = getelementptr inbounds [100 x i32], [100 x i32]* %4, i64 0, i64 %94
  %96 = load i32, i32* %95, align 4
  store i32 %96, i32* %11, align 4
  %97 = load i32, i32* %8, align 4
  %98 = add nsw i32 %97, 1
  %99 = sext i32 %98 to i64
  %100 = getelementptr inbounds [100 x i32], [100 x i32]* %4, i64 0, i64 %99
  %101 = load i32, i32* %100, align 4
  %102 = load i32, i32* %8, align 4
  %103 = sext i32 %102 to i64
  %104 = getelementptr inbounds [100 x i32], [100 x i32]* %4, i64 0, i64 %103
  store i32 %101, i32* %104, align 4
  %105 = load i32, i32* %11, align 4
  %106 = load i32, i32* %8, align 4
  %107 = add nsw i32 %106, 1
  %108 = sext i32 %107 to i64
  %109 = getelementptr inbounds [100 x i32], [100 x i32]* %4, i64 0, i64 %108
  store i32 %105, i32* %109, align 4
  %110 = getelementptr inbounds [100 x i8], [100 x i8]* %9, i64 0, i64 0
  %111 = load i32, i32* %8, align 4
  %112 = sext i32 %111 to i64
  %113 = getelementptr inbounds [100 x [101 x i8]], [100 x [101 x i8]]* %3, i64 0, i64 %112
  %114 = getelementptr inbounds [101 x i8], [101 x i8]* %113, i64 0, i64 0
  %115 = call i8* @strcpy(i8* %110, i8* %114) #3
  %116 = load i32, i32* %8, align 4
  %117 = sext i32 %116 to i64
  %118 = getelementptr inbounds [100 x [101 x i8]], [100 x [101 x i8]]* %3, i64 0, i64 %117
  %119 = getelementptr inbounds [101 x i8], [101 x i8]* %118, i64 0, i64 0
  %120 = load i32, i32* %8, align 4
  %121 = add nsw i32 %120, 1
  %122 = sext i32 %121 to i64
  %123 = getelementptr inbounds [100 x [101 x i8]], [100 x [101 x i8]]* %3, i64 0, i64 %122
  %124 = getelementptr inbounds [101 x i8], [101 x i8]* %123, i64 0, i64 0
  %125 = call i8* @strcpy(i8* %119, i8* %124) #3
  %126 = load i32, i32* %8, align 4
  %127 = add nsw i32 %126, 1
  %128 = sext i32 %127 to i64
  %129 = getelementptr inbounds [100 x [101 x i8]], [100 x [101 x i8]]* %3, i64 0, i64 %128
  %130 = getelementptr inbounds [101 x i8], [101 x i8]* %129, i64 0, i64 0
  %131 = getelementptr inbounds [100 x i8], [100 x i8]* %9, i64 0, i64 0
  %132 = call i8* @strcpy(i8* %130, i8* %131) #3
  br label %133

133:                                              ; preds = %92, %81
  br label %134

134:                                              ; preds = %133
  %135 = load i32, i32* %8, align 4
  %136 = add nsw i32 %135, 1
  store i32 %136, i32* %8, align 4
  br label %75

137:                                              ; preds = %75
  br label %138

138:                                              ; preds = %137
  %139 = load i32, i32* %7, align 4
  %140 = add nsw i32 %139, 1
  store i32 %140, i32* %7, align 4
  br label %70

141:                                              ; preds = %70
  store i32 0, i32* %7, align 4
  br label %142

142:                                              ; preds = %152, %141
  %143 = load i32, i32* %7, align 4
  %144 = load i32, i32* %6, align 4
  %145 = icmp slt i32 %143, %144
  br i1 %145, label %146, label %155

146:                                              ; preds = %142
  %147 = load i32, i32* %7, align 4
  %148 = sext i32 %147 to i64
  %149 = getelementptr inbounds [100 x [101 x i8]], [100 x [101 x i8]]* %3, i64 0, i64 %148
  %150 = getelementptr inbounds [101 x i8], [101 x i8]* %149, i64 0, i64 0
  %151 = call i32 (i8*, ...) @printf(i8* getelementptr inbounds ([4 x i8], [4 x i8]* @.str.2, i64 0, i64 0), i8* %150)
  br label %152

152:                                              ; preds = %146
  %153 = load i32, i32* %7, align 4
  %154 = add nsw i32 %153, 1
  store i32 %154, i32* %7, align 4
  br label %142

155:                                              ; preds = %142
  store i32 0, i32* %7, align 4
  br label %156

156:                                              ; preds = %173, %155
  %157 = load i32, i32* %7, align 4
  %158 = load i32, i32* %10, align 4
  %159 = icmp slt i32 %157, %158
  br i1 %159, label %160, label %176

160:                                              ; preds = %156
  %161 = load i32, i32* %7, align 4
  %162 = sext i32 %161 to i64
  %163 = getelementptr inbounds [100 x i32], [100 x i32]* %5, i64 0, i64 %162
  %164 = load i32, i32* %163, align 4
  %165 = icmp ne i32 %164, 0
  br i1 %165, label %166, label %172

166:                                              ; preds = %160
  %167 = load i32, i32* %7, align 4
  %168 = sext i32 %167 to i64
  %169 = getelementptr inbounds [100 x [101 x i8]], [100 x [101 x i8]]* %2, i64 0, i64 %168
  %170 = getelementptr inbounds [101 x i8], [101 x i8]* %169, i64 0, i64 0
  %171 = call i32 (i8*, ...) @printf(i8* getelementptr inbounds ([4 x i8], [4 x i8]* @.str.2, i64 0, i64 0), i8* %170)
  br label %172

172:                                              ; preds = %166, %160
  br label %173

173:                                              ; preds = %172
  %174 = load i32, i32* %7, align 4
  %175 = add nsw i32 %174, 1
  store i32 %175, i32* %7, align 4
  br label %156

176:                                              ; preds = %156
  ret i32 0
}

declare dso_local i32 @__isoc99_scanf(i8*, ...) #1

; Function Attrs: nounwind
declare dso_local i8* @strcpy(i8*, i8*) #2

declare dso_local i32 @printf(i8*, ...) #1


!llvm.module.flags = !{!0}
!llvm.ident = !{!1}

!0 = !{i32 1, !"wchar_size", i32 4}
!1 = !{!"clang version 10.0.0-4ubuntu1 "}
